target datalayout = "e-m:e-p270:32:32-p271:32:32-p272:64:64-i64:64-i128:128-f80:128-n8:16:32:64-S128"
target triple = "x86_64-pc-linux-gnu"

; Function Attrs: nounwind uwtable
define internal i32 @pg_euc2wchar_with_len(ptr noundef %0, ptr noundef %1, i32 noundef %2) #1 {
  %4 = alloca ptr, align 8
  %5 = alloca ptr, align 8
  %6 = alloca i32, align 4
  %7 = alloca i32, align 4
  store ptr %0, ptr %4, align 8
  store ptr %1, ptr %5, align 8
  store i32 %2, ptr %6, align 4
  call void @llvm.lifetime.start.p0(i64 4, ptr %7) #7
  store i32 0, ptr %7, align 4
  br label %8

8:                                                ; preds = %99, %3
  %9 = load i32, ptr %6, align 4
  %10 = icmp sgt i32 %9, 0
  br i1 %10, label %11, label %16

11:                                               ; preds = %8
  %12 = load ptr, ptr %4, align 8
  %13 = load i8, ptr %12, align 1
  %14 = zext i8 %13 to i32
  %15 = icmp ne i32 %14, 0
  br label %16

16:                                               ; preds = %11, %8
  %17 = phi i1 [ false, %8 ], [ %15, %11 ]
  br i1 %17, label %18, label %104

18:                                               ; preds = %16
  %19 = load ptr, ptr %4, align 8
  %20 = load i8, ptr %19, align 1
  %21 = zext i8 %20 to i32
  %22 = icmp eq i32 %21, 142
  br i1 %22, label %23, label %37

23:                                               ; preds = %18
  %24 = load i32, ptr %6, align 4
  %25 = icmp sge i32 %24, 2
  br i1 %25, label %26, label %37

26:                                               ; preds = %23
  %27 = load ptr, ptr %4, align 8
  %28 = getelementptr inbounds nuw i8, ptr %27, i32 1
  store ptr %28, ptr %4, align 8
  %29 = load ptr, ptr %4, align 8
  %30 = getelementptr inbounds nuw i8, ptr %29, i32 1
  store ptr %30, ptr %4, align 8
  %31 = load i8, ptr %29, align 1
  %32 = zext i8 %31 to i32
  %33 = or i32 36352, %32
  %34 = load ptr, ptr %5, align 8
  store i32 %33, ptr %34, align 4
  %35 = load i32, ptr %6, align 4
  %36 = sub i32 %35, 2
  store i32 %36, ptr %6, align 4
  br label %99

37:                                               ; preds = %23, %18
  %38 = load ptr, ptr %4, align 8
  %39 = load i8, ptr %38, align 1
  %40 = zext i8 %39 to i32
  %41 = icmp eq i32 %40, 143
  br i1 %41, label %42, label %64

42:                                               ; preds = %37
  %43 = load i32, ptr %6, align 4
  %44 = icmp sge i32 %43, 3
  br i1 %44, label %45, label %64

45:                                               ; preds = %42
  %46 = load ptr, ptr %4, align 8
  %47 = getelementptr inbounds nuw i8, ptr %46, i32 1
  store ptr %47, ptr %4, align 8
  %48 = load ptr, ptr %4, align 8
  %49 = getelementptr inbounds nuw i8, ptr %48, i32 1
  store ptr %49, ptr %4, align 8
  %50 = load i8, ptr %48, align 1
  %51 = zext i8 %50 to i32
  %52 = shl i32 %51, 8
  %53 = or i32 9371648, %52
  %54 = load ptr, ptr %5, align 8
  store i32 %53, ptr %54, align 4
  %55 = load ptr, ptr %4, align 8
  %56 = getelementptr inbounds nuw i8, ptr %55, i32 1
  store ptr %56, ptr %4, align 8
  %57 = load i8, ptr %55, align 1
  %58 = zext i8 %57 to i32
  %59 = load ptr, ptr %5, align 8
  %60 = load i32, ptr %59, align 4
  %61 = or i32 %60, %58
  store i32 %61, ptr %59, align 4
  %62 = load i32, ptr %6, align 4
  %63 = sub i32 %62, 3
  store i32 %63, ptr %6, align 4
  br label %98

64:                                               ; preds = %42, %37
  %65 = load ptr, ptr %4, align 8
  %66 = load i8, ptr %65, align 1
  %67 = zext i8 %66 to i32
  %68 = and i32 %67, 128
  %69 = icmp ne i32 %68, 0
  br i1 %69, label %70, label %89

70:                                               ; preds = %64
  %71 = load i32, ptr %6, align 4
  %72 = icmp sge i32 %71, 2
  br i1 %72, label %73, label %89

73:                                               ; preds = %70
  %74 = load ptr, ptr %4, align 8
  %75 = getelementptr inbounds nuw i8, ptr %74, i32 1
  store ptr %75, ptr %4, align 8
  %76 = load i8, ptr %74, align 1
  %77 = zext i8 %76 to i32
  %78 = shl i32 %77, 8
  %79 = load ptr, ptr %5, align 8
  store i32 %78, ptr %79, align 4
  %80 = load ptr, ptr %4, align 8
  %81 = getelementptr inbounds nuw i8, ptr %80, i32 1
  store ptr %81, ptr %4, align 8
  %82 = load i8, ptr %80, align 1
  %83 = zext i8 %82 to i32
  %84 = load ptr, ptr %5, align 8
  %85 = load i32, ptr %84, align 4
  %86 = or i32 %85, %83
  store i32 %86, ptr %84, align 4
  %87 = load i32, ptr %6, align 4
  %88 = sub i32 %87, 2
  store i32 %88, ptr %6, align 4
  br label %97

89:                                               ; preds = %70, %64
  %90 = load ptr, ptr %4, align 8
  %91 = getelementptr inbounds nuw i8, ptr %90, i32 1
  store ptr %91, ptr %4, align 8
  %92 = load i8, ptr %90, align 1
  %93 = zext i8 %92 to i32
  %94 = load ptr, ptr %5, align 8
  store i32 %93, ptr %94, align 4
  %95 = load i32, ptr %6, align 4
  %96 = add i32 %95, -1
  store i32 %96, ptr %6, align 4
  br label %97

97:                                               ; preds = %89, %73
  br label %98

98:                                               ; preds = %97, %45
  br label %99

99:                                               ; preds = %98, %26
  %100 = load ptr, ptr %5, align 8
  %101 = getelementptr inbounds nuw i32, ptr %100, i32 1
  store ptr %101, ptr %5, align 8
  %102 = load i32, ptr %7, align 4
  %103 = add i32 %102, 1
  store i32 %103, ptr %7, align 4
  br label %8, !llvm.loop !33

104:                                              ; preds = %16
  %105 = load ptr, ptr %5, align 8
  store i32 0, ptr %105, align 4
  %106 = load i32, ptr %7, align 4
  call void @llvm.lifetime.end.p0(i64 4, ptr %7) #7
  ret i32 %106
}

; Function Attrs: nounwind uwtable
define internal i32 @pg_euckr2wchar_with_len(ptr noundef %0, ptr noundef %1, i32 noundef %2) #1 {
  %4 = alloca ptr, align 8
  %5 = alloca ptr, align 8
  %6 = alloca i32, align 4
  store ptr %0, ptr %4, align 8
  store ptr %1, ptr %5, align 8
  store i32 %2, ptr %6, align 4
  %7 = load ptr, ptr %4, align 8
  %8 = load ptr, ptr %5, align 8
  %9 = load i32, ptr %6, align 4
  %10 = call i32 @pg_euc2wchar_with_len(ptr noundef %7, ptr noundef %8, i32 noundef %9)
  ret i32 %10
}